target datalayout = "e-m:e-p270:32:32-p271:32:32-p272:64:64-i64:64-i128:128-f80:128-n8:16:32:64-S128"
target triple = "x86_64-pc-linux-gnu"

; Function Attrs: nounwind uwtable
define dso_local i32 @string2ll(ptr noundef %0, i64 noundef %1, ptr noundef %2) #0 {
  %4 = alloca i32, align 4
  %5 = alloca ptr, align 8
  %6 = alloca i64, align 8
  %7 = alloca ptr, align 8
  %8 = alloca ptr, align 8
  %9 = alloca i64, align 8
  %10 = alloca i32, align 4
  %11 = alloca i64, align 8
  %12 = alloca i32, align 4
  store ptr %0, ptr %5, align 8, !tbaa !5
  store i64 %1, ptr %6, align 8, !tbaa !29
  store ptr %2, ptr %7, align 8, !tbaa !38
  call void @llvm.lifetime.start.p0(i64 8, ptr %8) #13
  %13 = load ptr, ptr %5, align 8, !tbaa !5
  store ptr %13, ptr %8, align 8, !tbaa !5
  call void @llvm.lifetime.start.p0(i64 8, ptr %9) #13
  store i64 0, ptr %9, align 8, !tbaa !29
  call void @llvm.lifetime.start.p0(i64 4, ptr %10) #13
  store i32 0, ptr %10, align 4, !tbaa !10
  call void @llvm.lifetime.start.p0(i64 8, ptr %11) #13
  %14 = load i64, ptr %9, align 8, !tbaa !29
  %15 = load i64, ptr %6, align 8, !tbaa !29
  %16 = icmp eq i64 %14, %15
  br i1 %16, label %20, label %17

17:                                               ; preds = %3
  %18 = load i64, ptr %6, align 8, !tbaa !29
  %19 = icmp uge i64 %18, 21
  br i1 %19, label %20, label %21

20:                                               ; preds = %17, %3
  store i32 0, ptr %4, align 4
  store i32 1, ptr %12, align 4
  br label %157

21:                                               ; preds = %17
  %22 = load i64, ptr %6, align 8, !tbaa !29
  %23 = icmp eq i64 %22, 1
  br i1 %23, label %24, label %36

24:                                               ; preds = %21
  %25 = load ptr, ptr %8, align 8, !tbaa !5
  %26 = getelementptr inbounds i8, ptr %25, i64 0
  %27 = load i8, ptr %26, align 1, !tbaa !12
  %28 = sext i8 %27 to i32
  %29 = icmp eq i32 %28, 48
  br i1 %29, label %30, label %36

30:                                               ; preds = %24
  %31 = load ptr, ptr %7, align 8, !tbaa !38
  %32 = icmp ne ptr %31, null
  br i1 %32, label %33, label %35

33:                                               ; preds = %30
  %34 = load ptr, ptr %7, align 8, !tbaa !38
  store i64 0, ptr %34, align 8, !tbaa !31
  br label %35

35:                                               ; preds = %33, %30
  store i32 1, ptr %4, align 4
  store i32 1, ptr %12, align 4
  br label %157

36:                                               ; preds = %24, %21
  %37 = load ptr, ptr %8, align 8, !tbaa !5
  %38 = getelementptr inbounds i8, ptr %37, i64 0
  %39 = load i8, ptr %38, align 1, !tbaa !12
  %40 = sext i8 %39 to i32
  %41 = icmp eq i32 %40, 45
  br i1 %41, label %42, label %52

42:                                               ; preds = %36
  store i32 1, ptr %10, align 4, !tbaa !10
  %43 = load ptr, ptr %8, align 8, !tbaa !5
  %44 = getelementptr inbounds nuw i8, ptr %43, i32 1
  store ptr %44, ptr %8, align 8, !tbaa !5
  %45 = load i64, ptr %9, align 8, !tbaa !29
  %46 = add i64 %45, 1
  store i64 %46, ptr %9, align 8, !tbaa !29
  %47 = load i64, ptr %9, align 8, !tbaa !29
  %48 = load i64, ptr %6, align 8, !tbaa !29
  %49 = icmp eq i64 %47, %48
  br i1 %49, label %50, label %51

50:                                               ; preds = %42
  store i32 0, ptr %4, align 4
  store i32 1, ptr %12, align 4
  br label %157

51:                                               ; preds = %42
  br label %52

52:                                               ; preds = %51, %36
  %53 = load ptr, ptr %8, align 8, !tbaa !5
  %54 = getelementptr inbounds i8, ptr %53, i64 0
  %55 = load i8, ptr %54, align 1, !tbaa !12
  %56 = sext i8 %55 to i32
  %57 = icmp sge i32 %56, 49
  br i1 %57, label %58, label %75

58:                                               ; preds = %52
  %59 = load ptr, ptr %8, align 8, !tbaa !5
  %60 = getelementptr inbounds i8, ptr %59, i64 0
  %61 = load i8, ptr %60, align 1, !tbaa !12
  %62 = sext i8 %61 to i32
  %63 = icmp sle i32 %62, 57
  br i1 %63, label %64, label %75

64:                                               ; preds = %58
  %65 = load ptr, ptr %8, align 8, !tbaa !5
  %66 = getelementptr inbounds i8, ptr %65, i64 0
  %67 = load i8, ptr %66, align 1, !tbaa !12
  %68 = sext i8 %67 to i32
  %69 = sub nsw i32 %68, 48
  %70 = sext i32 %69 to i64
  store i64 %70, ptr %11, align 8, !tbaa !31
  %71 = load ptr, ptr %8, align 8, !tbaa !5
  %72 = getelementptr inbounds nuw i8, ptr %71, i32 1
  store ptr %72, ptr %8, align 8, !tbaa !5
  %73 = load i64, ptr %9, align 8, !tbaa !29
  %74 = add i64 %73, 1
  store i64 %74, ptr %9, align 8, !tbaa !29
  br label %76

75:                                               ; preds = %58, %52
  store i32 0, ptr %4, align 4
  store i32 1, ptr %12, align 4
  br label %157

76:                                               ; preds = %64
  br label %77

77:                                               ; preds = %112, %76
  %78 = load i64, ptr %9, align 8, !tbaa !29
  %79 = load i64, ptr %6, align 8, !tbaa !29
  %80 = icmp ult i64 %78, %79
  br i1 %80, label %81, label %93

81:                                               ; preds = %77
  %82 = load ptr, ptr %8, align 8, !tbaa !5
  %83 = getelementptr inbounds i8, ptr %82, i64 0
  %84 = load i8, ptr %83, align 1, !tbaa !12
  %85 = sext i8 %84 to i32
  %86 = icmp sge i32 %85, 48
  br i1 %86, label %87, label %93

87:                                               ; preds = %81
  %88 = load ptr, ptr %8, align 8, !tbaa !5
  %89 = getelementptr inbounds i8, ptr %88, i64 0
  %90 = load i8, ptr %89, align 1, !tbaa !12
  %91 = sext i8 %90 to i32
  %92 = icmp sle i32 %91, 57
  br label %93

93:                                               ; preds = %87, %81, %77
  %94 = phi i1 [ false, %81 ], [ false, %77 ], [ %92, %87 ]
  br i1 %94, label %95, label %125

95:                                               ; preds = %93
  %96 = load i64, ptr %11, align 8, !tbaa !31
  %97 = icmp ugt i64 %96, 1844674407370955161
  br i1 %97, label %98, label %99

98:                                               ; preds = %95
  store i32 0, ptr %4, align 4
  store i32 1, ptr %12, align 4
  br label %157

99:                                               ; preds = %95
  %100 = load i64, ptr %11, align 8, !tbaa !31
  %101 = mul i64 %100, 10
  store i64 %101, ptr %11, align 8, !tbaa !31
  %102 = load i64, ptr %11, align 8, !tbaa !31
  %103 = load ptr, ptr %8, align 8, !tbaa !5
  %104 = getelementptr inbounds i8, ptr %103, i64 0
  %105 = load i8, ptr %104, align 1, !tbaa !12
  %106 = sext i8 %105 to i32
  %107 = sub nsw i32 %106, 48
  %108 = sext i32 %107 to i64
  %109 = sub i64 -1, %108
  %110 = icmp ugt i64 %102, %109
  br i1 %110, label %111, label %112

111:                                              ; preds = %99
  store i32 0, ptr %4, align 4
  store i32 1, ptr %12, align 4
  br label %157

112:                                              ; preds = %99
  %113 = load ptr, ptr %8, align 8, !tbaa !5
  %114 = getelementptr inbounds i8, ptr %113, i64 0
  %115 = load i8, ptr %114, align 1, !tbaa !12
  %116 = sext i8 %115 to i32
  %117 = sub nsw i32 %116, 48
  %118 = sext i32 %117 to i64
  %119 = load i64, ptr %11, align 8, !tbaa !31
  %120 = add i64 %119, %118
  store i64 %120, ptr %11, align 8, !tbaa !31
  %121 = load ptr, ptr %8, align 8, !tbaa !5
  %122 = getelementptr inbounds nuw i8, ptr %121, i32 1
  store ptr %122, ptr %8, align 8, !tbaa !5
  %123 = load i64, ptr %9, align 8, !tbaa !29
  %124 = add i64 %123, 1
  store i64 %124, ptr %9, align 8, !tbaa !29
  br label %77, !llvm.loop !40

125:                                              ; preds = %93
  %126 = load i64, ptr %9, align 8, !tbaa !29
  %127 = load i64, ptr %6, align 8, !tbaa !29
  %128 = icmp ult i64 %126, %127
  br i1 %128, label %129, label %130

129:                                              ; preds = %125
  store i32 0, ptr %4, align 4
  store i32 1, ptr %12, align 4
  br label %157

130:                                              ; preds = %125
  %131 = load i32, ptr %10, align 4, !tbaa !10
  %132 = icmp ne i32 %131, 0
  br i1 %132, label %133, label %145

133:                                              ; preds = %130
  %134 = load i64, ptr %11, align 8, !tbaa !31
  %135 = icmp ugt i64 %134, -9223372036854775808
  br i1 %135, label %136, label %137

136:                                              ; preds = %133
  store i32 0, ptr %4, align 4
  store i32 1, ptr %12, align 4
  br label %157

137:                                              ; preds = %133
  %138 = load ptr, ptr %7, align 8, !tbaa !38
  %139 = icmp ne ptr %138, null
  br i1 %139, label %140, label %144

140:                                              ; preds = %137
  %141 = load i64, ptr %11, align 8, !tbaa !31
  %142 = sub i64 0, %141
  %143 = load ptr, ptr %7, align 8, !tbaa !38
  store i64 %142, ptr %143, align 8, !tbaa !31
  br label %144

144:                                              ; preds = %140, %137
  br label %156

145:                                              ; preds = %130
  %146 = load i64, ptr %11, align 8, !tbaa !31
  %147 = icmp ugt i64 %146, 9223372036854775807
  br i1 %147, label %148, label %149

148:                                              ; preds = %145
  store i32 0, ptr %4, align 4
  store i32 1, ptr %12, align 4
  br label %157

149:                                              ; preds = %145
  %150 = load ptr, ptr %7, align 8, !tbaa !38
  %151 = icmp ne ptr %150, null
  br i1 %151, label %152, label %155

152:                                              ; preds = %149
  %153 = load i64, ptr %11, align 8, !tbaa !31
  %154 = load ptr, ptr %7, align 8, !tbaa !38
  store i64 %153, ptr %154, align 8, !tbaa !31
  br label %155

155:                                              ; preds = %152, %149
  br label %156

156:                                              ; preds = %155, %144
  store i32 1, ptr %4, align 4
  store i32 1, ptr %12, align 4
  br label %157

157:                                              ; preds = %156, %148, %136, %129, %111, %98, %75, %50, %35, %20
  call void @llvm.lifetime.end.p0(i64 8, ptr %11) #13
  call void @llvm.lifetime.end.p0(i64 4, ptr %10) #13
  call void @llvm.lifetime.end.p0(i64 8, ptr %9) #13
  call void @llvm.lifetime.end.p0(i64 8, ptr %8) #13
  %158 = load i32, ptr %4, align 4
  ret i32 %158
}

; Function Attrs: nounwind uwtable
define dso_local i32 @string2l(ptr noundef %0, i64 noundef %1, ptr noundef %2) #0 {
  %4 = alloca i32, align 4
  %5 = alloca ptr, align 8
  %6 = alloca i64, align 8
  %7 = alloca ptr, align 8
  %8 = alloca i64, align 8
  %9 = alloca i32, align 4
  store ptr %0, ptr %5, align 8, !tbaa !5
  store i64 %1, ptr %6, align 8, !tbaa !29
  store ptr %2, ptr %7, align 8, !tbaa !41
  call void @llvm.lifetime.start.p0(i64 8, ptr %8) #13
  %10 = load ptr, ptr %5, align 8, !tbaa !5
  %11 = load i64, ptr %6, align 8, !tbaa !29
  %12 = call i32 @string2ll(ptr noundef %10, i64 noundef %11, ptr noundef %8)
  %13 = icmp ne i32 %12, 0
  br i1 %13, label %15, label %14

14:                                               ; preds = %3
  store i32 0, ptr %4, align 4
  store i32 1, ptr %9, align 4
  br label %25

15:                                               ; preds = %3
  %16 = load i64, ptr %8, align 8, !tbaa !31
  %17 = icmp slt i64 %16, -9223372036854775808
  br i1 %17, label %21, label %18

18:                                               ; preds = %15
  %19 = load i64, ptr %8, align 8, !tbaa !31
  %20 = icmp sgt i64 %19, 9223372036854775807
  br i1 %20, label %21, label %22

21:                                               ; preds = %18, %15
  store i32 0, ptr %4, align 4
  store i32 1, ptr %9, align 4
  br label %25

22:                                               ; preds = %18
  %23 = load i64, ptr %8, align 8, !tbaa !31
  %24 = load ptr, ptr %7, align 8, !tbaa !41
  store i64 %23, ptr %24, align 8, !tbaa !29
  store i32 1, ptr %4, align 4
  store i32 1, ptr %9, align 4
  br label %25

25:                                               ; preds = %22, %21, %14
  call void @llvm.lifetime.end.p0(i64 8, ptr %8) #13
  %26 = load i32, ptr %4, align 4
  ret i32 %26
}