; Function Attrs: nofree norecurse nosync nounwind memory(argmem: readwrite) uwtable
define dso_local range(i32 0, 2) i32 @string2l(ptr noundef readonly captures(none) %0, i64 noundef %1, ptr noundef writeonly captures(none) %2) local_unnamed_addr #12 {
  %4 = add i64 %1, -21
  %or.cond.i = icmp ult i64 %4, -20
  br i1 %or.cond.i, label %string2ll.exit.thread, label %5

5:                                                ; preds = %3
  %6 = icmp eq i64 %1, 1
  %7 = load i8, ptr %0, align 1, !tbaa !9
  br i1 %6, label %8, label %.thread.i

8:                                                ; preds = %5
  switch i8 %7, label %.thread71.i [
    i8 48, label %string2ll.exit
    i8 45, label %string2ll.exit.thread
  ]

.thread.i:                                        ; preds = %5
  %.not60.i = icmp eq i8 %7, 45
  br i1 %.not60.i, label %.thread63.i, label %10

.thread63.i:                                      ; preds = %.thread.i
  %9 = getelementptr inbounds nuw i8, ptr %0, i64 1
  %.pre.i = load i8, ptr %9, align 1, !tbaa !9
  br label %10

10:                                               ; preds = %.thread63.i, %.thread.i
  %11 = phi i8 [ %7, %.thread.i ], [ %.pre.i, %.thread63.i ]
  %.044.i = phi ptr [ %0, %.thread.i ], [ %9, %.thread63.i ]
  %.043.i = phi i64 [ 1, %.thread.i ], [ 2, %.thread63.i ]
  %12 = add i8 %11, -49
  %or.cond57.i = icmp ult i8 %12, 9
  br i1 %or.cond57.i, label %15, label %string2ll.exit.thread

.thread71.i:                                      ; preds = %8
  %13 = add i8 %7, -49
  %or.cond5775.i = icmp ult i8 %13, 9
  br i1 %or.cond5775.i, label %.thread88.i, label %string2ll.exit.thread

.thread88.i:                                      ; preds = %.thread71.i
  %narrow83.i = add nsw i8 %7, -48
  %14 = zext nneg i8 %narrow83.i to i64
  br label %string2ll.exit

15:                                               ; preds = %10
  %narrow.i = add nsw i8 %11, -48
  %16 = zext nneg i8 %narrow.i to i64
  %17 = icmp samesign ult i64 %.043.i, %1
  br i1 %17, label %.lr.ph.i, label %.critedge59.i

.lr.ph.i:                                         ; preds = %15, %26
  %.14570.pn.i = phi ptr [ %.14570.i, %26 ], [ %.044.i, %15 ]
  %.069.i = phi i64 [ %27, %26 ], [ %16, %15 ]
  %.168.i = phi i64 [ %28, %26 ], [ %.043.i, %15 ]
  %.14570.i = getelementptr inbounds nuw i8, ptr %.14570.pn.i, i64 1
  %18 = load i8, ptr %.14570.i, align 1, !tbaa !9
  %19 = add i8 %18, -58
  %or.cond58.i = icmp ult i8 %19, -10
  %20 = icmp ugt i64 %.069.i, 1844674407370955161
  %or.cond65.i = select i1 %or.cond58.i, i1 true, i1 %20
  br i1 %or.cond65.i, label %string2ll.exit.thread, label %21

21:                                               ; preds = %.lr.ph.i
  %22 = mul nuw i64 %.069.i, 10
  %narrow55.i = add nsw i8 %18, -48
  %23 = zext nneg i8 %narrow55.i to i64
  %24 = xor i64 %23, -1
  %25 = icmp ugt i64 %22, %24
  br i1 %25, label %string2ll.exit.thread, label %26

26:                                               ; preds = %21
  %27 = add i64 %22, %23
  %28 = add nuw i64 %.168.i, 1
  %exitcond.not.i = icmp eq i64 %28, %1
  br i1 %exitcond.not.i, label %.critedge59.i, label %.lr.ph.i, !llvm.loop !34

.critedge59.i:                                    ; preds = %26, %15
  %.0.lcssa.i = phi i64 [ %16, %15 ], [ %27, %26 ]
  br i1 %.not60.i, label %29, label %33

29:                                               ; preds = %.critedge59.i
  %30 = icmp ugt i64 %.0.lcssa.i, -9223372036854775808
  br i1 %30, label %string2ll.exit.thread, label %31

31:                                               ; preds = %29
  %32 = sub i64 0, %.0.lcssa.i
  br label %string2ll.exit

33:                                               ; preds = %.critedge59.i
  %34 = icmp slt i64 %.0.lcssa.i, 0
  br i1 %34, label %string2ll.exit.thread, label %string2ll.exit

string2ll.exit:                                   ; preds = %.thread88.i, %33, %8, %31
  %.sink.i = phi i64 [ %32, %31 ], [ 0, %8 ], [ %14, %.thread88.i ], [ %.0.lcssa.i, %33 ]
  store i64 %.sink.i, ptr %2, align 8, !tbaa !37
  br label %string2ll.exit.thread

string2ll.exit.thread:                            ; preds = %.lr.ph.i, %21, %.thread71.i, %8, %33, %29, %10, %3, %string2ll.exit
  %.0 = phi i32 [ 1, %string2ll.exit ], [ 0, %3 ], [ 0, %10 ], [ 0, %29 ], [ 0, %33 ], [ 0, %8 ], [ 0, %.thread71.i ], [ 0, %21 ], [ 0, %.lr.ph.i ]
  ret i32 %.0
}